; Function Attrs: inlinehint nounwind uwtable
define internal fastcc range(i32 -1, 1) i32 @bfdec_resize(ptr noundef captures(none) %0, i64 noundef %1) unnamed_addr #12 {
  %3 = getelementptr inbounds nuw i8, ptr %0, i64 24
  %4 = load i64, ptr %3, align 8, !tbaa !32
  %.not.i = icmp eq i64 %1, %4
  br i1 %.not.i, label %bf_resize.exit, label %5

5:                                                ; preds = %2
  %6 = load ptr, ptr %0, align 8, !tbaa !28
  %7 = getelementptr inbounds nuw i8, ptr %0, i64 32
  %8 = load ptr, ptr %7, align 8, !tbaa !29
  %9 = shl i64 %1, 3
  %.val.i = load ptr, ptr %6, align 8, !tbaa !19
  %10 = getelementptr i8, ptr %6, i64 8
  %.val13.i = load ptr, ptr %10, align 8, !tbaa !7
  %11 = tail call ptr %.val13.i(ptr noundef %.val.i, ptr noundef %8, i64 noundef %9) #21
  %12 = icmp eq ptr %11, null
  %13 = icmp ne i64 %1, 0
  %or.cond.i = and i1 %13, %12
  br i1 %or.cond.i, label %bf_resize.exit, label %14

14:                                               ; preds = %5
  store ptr %11, ptr %7, align 8, !tbaa !29
  store i64 %1, ptr %3, align 8, !tbaa !32
  br label %bf_resize.exit

bf_resize.exit:                                   ; preds = %2, %5, %14
  %.0.i = phi i32 [ -1, %5 ], [ 0, %14 ], [ 0, %2 ]
  ret i32 %.0.i
}